; Function Attrs: nounwind uwtable
define void @dt_import_session_import(ptr noundef readonly captures(none) %0) local_unnamed_addr #0 {
  %2 = getelementptr inbounds nuw i8, ptr %0, i64 8
  %3 = load ptr, ptr %2, align 8, !tbaa !16
  %4 = load i32, ptr %3, align 8, !tbaa !17
  %5 = getelementptr inbounds nuw i8, ptr %0, i64 32
  %6 = load ptr, ptr %5, align 8, !tbaa !22
  %7 = tail call i32 @dt_image_import(i32 noundef %4, ptr noundef %6, i32 noundef 1, i32 noundef 1) #9
  %8 = icmp sgt i32 %7, 0
  br i1 %8, label %9, label %21

9:                                                ; preds = %1
  %10 = load i32, ptr getelementptr inbounds nuw (i8, ptr @darktable, i64 3128), align 8, !tbaa !23
  %11 = and i32 %10, 1
  %12 = icmp ne i32 %11, 0
  %13 = load i32, ptr getelementptr inbounds nuw (i8, ptr @darktable, i64 3156), align 4
  %14 = icmp ne i32 %13, 0
  %or.cond = select i1 %12, i1 %14, i1 false
  br i1 %or.cond, label %15, label %19

15:                                               ; preds = %9
  %16 = load i32, ptr getelementptr inbounds nuw (i8, ptr @darktable, i64 8), align 8, !tbaa !59
  %17 = and i32 %16, 1048576
  %.not = icmp eq i32 %17, 0
  br i1 %.not, label %19, label %18

18:                                               ; preds = %15
  tail call void (ptr, ...) @dt_print_ext(ptr noundef nonnull @.str, ptr noundef nonnull @.str.1, ptr noundef nonnull @.str.2, i32 noundef 193, ptr noundef nonnull @__FUNCTION__.dt_import_session_import) #9
  br label %19

19:                                               ; preds = %15, %18, %9
  %20 = load ptr, ptr getelementptr inbounds nuw (i8, ptr @darktable, i64 96), align 8, !tbaa !60
  tail call void (ptr, i32, ...) @dt_control_signal_raise(ptr noundef %20, i32 noundef 6, i32 noundef %7) #9
  tail call void (...) @dt_control_queue_redraw() #9
  br label %21

21:                                               ; preds = %19, %1
  ret void
}